; Function Attrs: mustprogress uwtable
define hidden void @_ZN8facebook6hermes7tracing14TracingRuntime9addMarkerERKNSt7__cxx1112basic_stringIcSt11char_traitsIcESaIcEEE(ptr noundef nonnull align 8 dereferenceable(172) %this, ptr noundef nonnull align 8 dereferenceable(32) %marker) local_unnamed_addr #0 align 2 {
entry:
  %ref.tmp = alloca %"class.std::chrono::duration.37", align 8
  %trace_ = getelementptr inbounds i8, ptr %this, i64 32
  %call.i = tail call i64 @_ZNSt6chrono3_V212steady_clock3nowEv() #27
  %startTime_.i = getelementptr inbounds i8, ptr %this, i64 160
  %retval.sroa.0.0.copyload.i1.i.i = load i64, ptr %startTime_.i, align 8
  %sub.i.i.i = sub nsw i64 %call.i, %retval.sroa.0.0.copyload.i1.i.i
  %div.i.i.i = sdiv i64 %sub.i.i.i, 1000000
  store i64 %div.i.i.i, ptr %ref.tmp, align 8
  call void @_ZN8facebook6hermes7tracing10SynthTrace12emplace_backINS2_12MarkerRecordEJNSt6chrono8durationIlSt5ratioILl1ELl1000EEEERKNSt7__cxx1112basic_stringIcSt11char_traitsIcESaIcEEEEEEvDpOT0_(ptr noundef nonnull align 8 dereferenceable(48) %trace_, ptr noundef nonnull align 8 dereferenceable(8) %ref.tmp, ptr noundef nonnull align 8 dereferenceable(32) %marker)
  ret void
}